target datalayout = "e-m:e-p270:32:32-p271:32:32-p272:64:64-i64:64-i128:128-f80:128-n8:16:32:64-S128"
target triple = "x86_64-pc-linux-gnu"

%struct._zend_executor_globals = type { %struct._zval_struct, %struct._zval_struct, [32 x ptr], ptr, ptr, %struct._zend_array, %struct._zend_array, ptr, i32, i32, ptr, ptr, ptr, ptr, ptr, ptr, i64, ptr, ptr, i32, i32, i64, i32, i32, i32, i8, i8, %struct.zend_atomic_bool_s, %struct.zend_atomic_bool_s, ptr, i64, ptr, ptr, %struct._zend_array, %struct._zend_array, i32, i8, %struct._zval_struct, %struct._zval_struct, %struct._zend_stack, %struct._zend_stack, %struct._zend_stack, ptr, i32, i32, i64, ptr, ptr, ptr, %struct._zend_objects_store, ptr, ptr, ptr, [3 x %struct._zend_op], ptr, i8, i8, i64, i32, i32, ptr, [16 x %struct._HashTableIterator], ptr, %union._zend_function, %struct._zend_op, %struct._zend_array, i64, %struct.zend_get_gc_buffer, ptr, ptr, ptr, i64, i8, i32, ptr, ptr, i64, %struct._zend_call_stack, i64, i64, [6 x ptr] }
%struct.zend_atomic_bool_s = type { i8 }
%struct._zval_struct = type { %union._zend_value, %union.anon, %union.anon.2 }
%union._zend_value = type { i64 }
%union.anon = type { i32 }
%union.anon.2 = type { i32 }
%struct._zend_stack = type { i32, i32, i32, ptr }
%struct._zend_objects_store = type { ptr, i32, i32, i32 }
%struct._HashTableIterator = type { ptr, i32, i32 }
%union._zend_function = type { %struct._zend_op_array }
%struct._zend_op_array = type { i8, [3 x i8], i32, ptr, ptr, ptr, i32, i32, ptr, ptr, ptr, ptr, i32, i32, i32, i32, ptr, ptr, ptr, ptr, ptr, i32, i32, ptr, ptr, ptr, i32, i32, i32, i32, ptr, ptr, [6 x ptr] }
%struct._zend_op = type { ptr, %union._znode_op, %union._znode_op, %union._znode_op, i32, i32, i8, i8, i8, i8 }
%union._znode_op = type { i32 }
%struct._zend_array = type { %struct._zend_refcounted_h, %union.anon.4, i32, %union.anon.6, i32, i32, i32, i32, i64, ptr }
%struct._zend_refcounted_h = type { i32, %union.anon.3 }
%union.anon.3 = type { i32 }
%union.anon.4 = type { i32 }
%union.anon.6 = type { ptr }
%struct.zend_get_gc_buffer = type { ptr, ptr, ptr }
%struct._zend_call_stack = type { ptr, i64 }
%struct._php_random_algo = type { i64, ptr, ptr, ptr, ptr }
%struct._php_random_algo_with_state = type { ptr, ptr }
%struct._php_random_result = type { i64, i64 }

@executor_globals = external global %struct._zend_executor_globals, align 8
@random_ce_Random_BrokenRandomEngineError = global ptr null, align 8
@.str = private unnamed_addr constant [62 x i8] c"Failed to generate an acceptable random number in %d attempts\00", align 1

; Function Attrs: nounwind uwtable
define i32 @php_random_range32(ptr %0, ptr %1, i32 noundef %2) #0 {
  %4 = alloca i32, align 4
  %5 = alloca %struct._php_random_algo_with_state, align 8
  %6 = alloca i32, align 4
  %7 = alloca ptr, align 8
  %8 = alloca ptr, align 8
  %9 = alloca i32, align 4
  %10 = alloca i32, align 4
  %11 = alloca i64, align 8
  %12 = alloca i32, align 4
  %13 = alloca %struct._php_random_result, align 8
  %14 = alloca %struct._php_random_result, align 8
  %15 = getelementptr inbounds { ptr, ptr }, ptr %5, i32 0, i32 0
  store ptr %0, ptr %15, align 8
  %16 = getelementptr inbounds { ptr, ptr }, ptr %5, i32 0, i32 1
  store ptr %1, ptr %16, align 8
  store i32 %2, ptr %6, align 4
  %17 = getelementptr inbounds %struct._php_random_algo_with_state, ptr %5, i32 0, i32 0
  %18 = load ptr, ptr %17, align 8
  store ptr %18, ptr %7, align 8
  %19 = getelementptr inbounds %struct._php_random_algo_with_state, ptr %5, i32 0, i32 1
  %20 = load ptr, ptr %19, align 8
  store ptr %20, ptr %8, align 8
  store i64 0, ptr %11, align 8
  store i32 0, ptr %12, align 4
  store i32 0, ptr %9, align 4
  store i64 0, ptr %11, align 8
  br label %21

21:                                               ; preds = %48, %3
  %22 = load ptr, ptr %7, align 8
  %23 = getelementptr inbounds %struct._php_random_algo, ptr %22, i32 0, i32 1
  %24 = load ptr, ptr %23, align 8
  %25 = load ptr, ptr %8, align 8
  %26 = call { i64, i64 } %24(ptr noundef %25)
  %27 = getelementptr inbounds { i64, i64 }, ptr %13, i32 0, i32 0
  %28 = extractvalue { i64, i64 } %26, 0
  store i64 %28, ptr %27, align 8
  %29 = getelementptr inbounds { i64, i64 }, ptr %13, i32 0, i32 1
  %30 = extractvalue { i64, i64 } %26, 1
  store i64 %30, ptr %29, align 8
  %31 = load i32, ptr %9, align 4
  %32 = getelementptr inbounds %struct._php_random_result, ptr %13, i32 0, i32 0
  %33 = load i64, ptr %32, align 8
  %34 = trunc i64 %33 to i32
  %35 = load i64, ptr %11, align 8
  %36 = mul i64 %35, 8
  %37 = trunc i64 %36 to i32
  %38 = shl i32 %34, %37
  %39 = or i32 %31, %38
  store i32 %39, ptr %9, align 4
  %40 = getelementptr inbounds %struct._php_random_result, ptr %13, i32 0, i32 1
  %41 = load i64, ptr %40, align 8
  %42 = load i64, ptr %11, align 8
  %43 = add i64 %42, %41
  store i64 %43, ptr %11, align 8
  %44 = load ptr, ptr getelementptr inbounds (%struct._zend_executor_globals, ptr @executor_globals, i32 0, i32 50), align 8
  %45 = icmp ne ptr %44, null
  br i1 %45, label %46, label %47

46:                                               ; preds = %21
  store i32 0, ptr %4, align 4
  br label %130

47:                                               ; preds = %21
  br label %48

48:                                               ; preds = %47
  %49 = load i64, ptr %11, align 8
  %50 = icmp ult i64 %49, 4
  br i1 %50, label %21, label %51

51:                                               ; preds = %48
  %52 = load i32, ptr %6, align 4
  %53 = icmp eq i32 %52, -1
  %54 = xor i1 %53, true
  %55 = xor i1 %54, true
  %56 = zext i1 %55 to i32
  %57 = sext i32 %56 to i64
  %58 = icmp ne i64 %57, 0
  br i1 %58, label %59, label %61

59:                                               ; preds = %51
  %60 = load i32, ptr %9, align 4
  store i32 %60, ptr %4, align 4
  br label %130

61:                                               ; preds = %51
  %62 = load i32, ptr %6, align 4
  %63 = add i32 %62, 1
  store i32 %63, ptr %6, align 4
  %64 = load i32, ptr %6, align 4
  %65 = load i32, ptr %6, align 4
  %66 = sub i32 %65, 1
  %67 = and i32 %64, %66
  %68 = icmp eq i32 %67, 0
  br i1 %68, label %69, label %74

69:                                               ; preds = %61
  %70 = load i32, ptr %9, align 4
  %71 = load i32, ptr %6, align 4
  %72 = sub i32 %71, 1
  %73 = and i32 %70, %72
  store i32 %73, ptr %4, align 4
  br label %130

74:                                               ; preds = %61
  %75 = load i32, ptr %6, align 4
  %76 = urem i32 -1, %75
  %77 = sub i32 -1, %76
  %78 = sub i32 %77, 1
  store i32 %78, ptr %10, align 4
  br label %79

79:                                               ; preds = %125, %74
  %80 = load i32, ptr %9, align 4
  %81 = load i32, ptr %10, align 4
  %82 = icmp ugt i32 %80, %81
  %83 = xor i1 %82, true
  %84 = xor i1 %83, true
  %85 = zext i1 %84 to i32
  %86 = sext i32 %85 to i64
  %87 = icmp ne i64 %86, 0
  br i1 %87, label %88, label %126

88:                                               ; preds = %79
  %89 = load i32, ptr %12, align 4
  %90 = add i32 %89, 1
  store i32 %90, ptr %12, align 4
  %91 = icmp ugt i32 %90, 50
  br i1 %91, label %92, label %94

92:                                               ; preds = %88
  %93 = load ptr, ptr @random_ce_Random_BrokenRandomEngineError, align 8
  call void (ptr, ptr, ...) @zend_throw_error(ptr noundef %93, ptr noundef @.str, i32 noundef 50)
  store i32 0, ptr %4, align 4
  br label %130

94:                                               ; preds = %88
  store i32 0, ptr %9, align 4
  store i64 0, ptr %11, align 8
  br label %95

95:                                               ; preds = %122, %94
  %96 = load ptr, ptr %7, align 8
  %97 = getelementptr inbounds %struct._php_random_algo, ptr %96, i32 0, i32 1
  %98 = load ptr, ptr %97, align 8
  %99 = load ptr, ptr %8, align 8
  %100 = call { i64, i64 } %98(ptr noundef %99)
  %101 = getelementptr inbounds { i64, i64 }, ptr %14, i32 0, i32 0
  %102 = extractvalue { i64, i64 } %100, 0
  store i64 %102, ptr %101, align 8
  %103 = getelementptr inbounds { i64, i64 }, ptr %14, i32 0, i32 1
  %104 = extractvalue { i64, i64 } %100, 1
  store i64 %104, ptr %103, align 8
  %105 = load i32, ptr %9, align 4
  %106 = getelementptr inbounds %struct._php_random_result, ptr %14, i32 0, i32 0
  %107 = load i64, ptr %106, align 8
  %108 = trunc i64 %107 to i32
  %109 = load i64, ptr %11, align 8
  %110 = mul i64 %109, 8
  %111 = trunc i64 %110 to i32
  %112 = shl i32 %108, %111
  %113 = or i32 %105, %112
  store i32 %113, ptr %9, align 4
  %114 = getelementptr inbounds %struct._php_random_result, ptr %14, i32 0, i32 1
  %115 = load i64, ptr %114, align 8
  %116 = load i64, ptr %11, align 8
  %117 = add i64 %116, %115
  store i64 %117, ptr %11, align 8
  %118 = load ptr, ptr getelementptr inbounds (%struct._zend_executor_globals, ptr @executor_globals, i32 0, i32 50), align 8
  %119 = icmp ne ptr %118, null
  br i1 %119, label %120, label %121

120:                                              ; preds = %95
  store i32 0, ptr %4, align 4
  br label %130

121:                                              ; preds = %95
  br label %122

122:                                              ; preds = %121
  %123 = load i64, ptr %11, align 8
  %124 = icmp ult i64 %123, 4
  br i1 %124, label %95, label %125

125:                                              ; preds = %122
  br label %79

126:                                              ; preds = %79
  %127 = load i32, ptr %9, align 4
  %128 = load i32, ptr %6, align 4
  %129 = urem i32 %127, %128
  store i32 %129, ptr %4, align 4
  br label %130

130:                                              ; preds = %126, %120, %92, %69, %59, %46
  %131 = load i32, ptr %4, align 4
  ret i32 %131
}

; Function Attrs: nounwind uwtable
define i64 @php_random_range64(ptr %0, ptr %1, i64 noundef %2) #0 {
  %4 = alloca i64, align 8
  %5 = alloca %struct._php_random_algo_with_state, align 8
  %6 = alloca i64, align 8
  %7 = alloca ptr, align 8
  %8 = alloca ptr, align 8
  %9 = alloca i64, align 8
  %10 = alloca i64, align 8
  %11 = alloca i64, align 8
  %12 = alloca i32, align 4
  %13 = alloca %struct._php_random_result, align 8
  %14 = alloca %struct._php_random_result, align 8
  %15 = getelementptr inbounds { ptr, ptr }, ptr %5, i32 0, i32 0
  store ptr %0, ptr %15, align 8
  %16 = getelementptr inbounds { ptr, ptr }, ptr %5, i32 0, i32 1
  store ptr %1, ptr %16, align 8
  store i64 %2, ptr %6, align 8
  %17 = getelementptr inbounds %struct._php_random_algo_with_state, ptr %5, i32 0, i32 0
  %18 = load ptr, ptr %17, align 8
  store ptr %18, ptr %7, align 8
  %19 = getelementptr inbounds %struct._php_random_algo_with_state, ptr %5, i32 0, i32 1
  %20 = load ptr, ptr %19, align 8
  store ptr %20, ptr %8, align 8
  store i64 0, ptr %11, align 8
  store i32 0, ptr %12, align 4
  store i64 0, ptr %9, align 8
  store i64 0, ptr %11, align 8
  br label %21

21:                                               ; preds = %46, %3
  %22 = load ptr, ptr %7, align 8
  %23 = getelementptr inbounds %struct._php_random_algo, ptr %22, i32 0, i32 1
  %24 = load ptr, ptr %23, align 8
  %25 = load ptr, ptr %8, align 8
  %26 = call { i64, i64 } %24(ptr noundef %25)
  %27 = getelementptr inbounds { i64, i64 }, ptr %13, i32 0, i32 0
  %28 = extractvalue { i64, i64 } %26, 0
  store i64 %28, ptr %27, align 8
  %29 = getelementptr inbounds { i64, i64 }, ptr %13, i32 0, i32 1
  %30 = extractvalue { i64, i64 } %26, 1
  store i64 %30, ptr %29, align 8
  %31 = load i64, ptr %9, align 8
  %32 = getelementptr inbounds %struct._php_random_result, ptr %13, i32 0, i32 0
  %33 = load i64, ptr %32, align 8
  %34 = load i64, ptr %11, align 8
  %35 = mul i64 %34, 8
  %36 = shl i64 %33, %35
  %37 = or i64 %31, %36
  store i64 %37, ptr %9, align 8
  %38 = getelementptr inbounds %struct._php_random_result, ptr %13, i32 0, i32 1
  %39 = load i64, ptr %38, align 8
  %40 = load i64, ptr %11, align 8
  %41 = add i64 %40, %39
  store i64 %41, ptr %11, align 8
  %42 = load ptr, ptr getelementptr inbounds (%struct._zend_executor_globals, ptr @executor_globals, i32 0, i32 50), align 8
  %43 = icmp ne ptr %42, null
  br i1 %43, label %44, label %45

44:                                               ; preds = %21
  store i64 0, ptr %4, align 8
  br label %126

45:                                               ; preds = %21
  br label %46

46:                                               ; preds = %45
  %47 = load i64, ptr %11, align 8
  %48 = icmp ult i64 %47, 8
  br i1 %48, label %21, label %49

49:                                               ; preds = %46
  %50 = load i64, ptr %6, align 8
  %51 = icmp eq i64 %50, -1
  %52 = xor i1 %51, true
  %53 = xor i1 %52, true
  %54 = zext i1 %53 to i32
  %55 = sext i32 %54 to i64
  %56 = icmp ne i64 %55, 0
  br i1 %56, label %57, label %59

57:                                               ; preds = %49
  %58 = load i64, ptr %9, align 8
  store i64 %58, ptr %4, align 8
  br label %126

59:                                               ; preds = %49
  %60 = load i64, ptr %6, align 8
  %61 = add i64 %60, 1
  store i64 %61, ptr %6, align 8
  %62 = load i64, ptr %6, align 8
  %63 = load i64, ptr %6, align 8
  %64 = sub i64 %63, 1
  %65 = and i64 %62, %64
  %66 = icmp eq i64 %65, 0
  br i1 %66, label %67, label %72

67:                                               ; preds = %59
  %68 = load i64, ptr %9, align 8
  %69 = load i64, ptr %6, align 8
  %70 = sub i64 %69, 1
  %71 = and i64 %68, %70
  store i64 %71, ptr %4, align 8
  br label %126

72:                                               ; preds = %59
  %73 = load i64, ptr %6, align 8
  %74 = urem i64 -1, %73
  %75 = sub i64 -1, %74
  %76 = sub i64 %75, 1
  store i64 %76, ptr %10, align 8
  br label %77

77:                                               ; preds = %121, %72
  %78 = load i64, ptr %9, align 8
  %79 = load i64, ptr %10, align 8
  %80 = icmp ugt i64 %78, %79
  %81 = xor i1 %80, true
  %82 = xor i1 %81, true
  %83 = zext i1 %82 to i32
  %84 = sext i32 %83 to i64
  %85 = icmp ne i64 %84, 0
  br i1 %85, label %86, label %122

86:                                               ; preds = %77
  %87 = load i32, ptr %12, align 4
  %88 = add i32 %87, 1
  store i32 %88, ptr %12, align 4
  %89 = icmp ugt i32 %88, 50
  br i1 %89, label %90, label %92

90:                                               ; preds = %86
  %91 = load ptr, ptr @random_ce_Random_BrokenRandomEngineError, align 8
  call void (ptr, ptr, ...) @zend_throw_error(ptr noundef %91, ptr noundef @.str, i32 noundef 50)
  store i64 0, ptr %4, align 8
  br label %126

92:                                               ; preds = %86
  store i64 0, ptr %9, align 8
  store i64 0, ptr %11, align 8
  br label %93

93:                                               ; preds = %118, %92
  %94 = load ptr, ptr %7, align 8
  %95 = getelementptr inbounds %struct._php_random_algo, ptr %94, i32 0, i32 1
  %96 = load ptr, ptr %95, align 8
  %97 = load ptr, ptr %8, align 8
  %98 = call { i64, i64 } %96(ptr noundef %97)
  %99 = getelementptr inbounds { i64, i64 }, ptr %14, i32 0, i32 0
  %100 = extractvalue { i64, i64 } %98, 0
  store i64 %100, ptr %99, align 8
  %101 = getelementptr inbounds { i64, i64 }, ptr %14, i32 0, i32 1
  %102 = extractvalue { i64, i64 } %98, 1
  store i64 %102, ptr %101, align 8
  %103 = load i64, ptr %9, align 8
  %104 = getelementptr inbounds %struct._php_random_result, ptr %14, i32 0, i32 0
  %105 = load i64, ptr %104, align 8
  %106 = load i64, ptr %11, align 8
  %107 = mul i64 %106, 8
  %108 = shl i64 %105, %107
  %109 = or i64 %103, %108
  store i64 %109, ptr %9, align 8
  %110 = getelementptr inbounds %struct._php_random_result, ptr %14, i32 0, i32 1
  %111 = load i64, ptr %110, align 8
  %112 = load i64, ptr %11, align 8
  %113 = add i64 %112, %111
  store i64 %113, ptr %11, align 8
  %114 = load ptr, ptr getelementptr inbounds (%struct._zend_executor_globals, ptr @executor_globals, i32 0, i32 50), align 8
  %115 = icmp ne ptr %114, null
  br i1 %115, label %116, label %117

116:                                              ; preds = %93
  store i64 0, ptr %4, align 8
  br label %126

117:                                              ; preds = %93
  br label %118

118:                                              ; preds = %117
  %119 = load i64, ptr %11, align 8
  %120 = icmp ult i64 %119, 8
  br i1 %120, label %93, label %121

121:                                              ; preds = %118
  br label %77

122:                                              ; preds = %77
  %123 = load i64, ptr %9, align 8
  %124 = load i64, ptr %6, align 8
  %125 = urem i64 %123, %124
  store i64 %125, ptr %4, align 8
  br label %126

126:                                              ; preds = %122, %116, %90, %67, %57, %44
  %127 = load i64, ptr %4, align 8
  ret i64 %127
}

; Function Attrs: nounwind uwtable
define i64 @php_random_range(ptr %0, ptr %1, i64 noundef %2, i64 noundef %3) #0 {
  %5 = alloca i64, align 8
  %6 = alloca %struct._php_random_algo_with_state, align 8
  %7 = alloca i64, align 8
  %8 = alloca i64, align 8
  %9 = alloca i64, align 8
  %10 = getelementptr inbounds { ptr, ptr }, ptr %6, i32 0, i32 0
  store ptr %0, ptr %10, align 8
  %11 = getelementptr inbounds { ptr, ptr }, ptr %6, i32 0, i32 1
  store ptr %1, ptr %11, align 8
  store i64 %2, ptr %7, align 8
  store i64 %3, ptr %8, align 8
  %12 = load i64, ptr %8, align 8
  %13 = load i64, ptr %7, align 8
  %14 = sub i64 %12, %13
  store i64 %14, ptr %9, align 8
  %15 = load i64, ptr %9, align 8
  %16 = icmp ugt i64 %15, 4294967295
  br i1 %16, label %17, label %26

17:                                               ; preds = %4
  %18 = load i64, ptr %9, align 8
  %19 = getelementptr inbounds { ptr, ptr }, ptr %6, i32 0, i32 0
  %20 = load ptr, ptr %19, align 8
  %21 = getelementptr inbounds { ptr, ptr }, ptr %6, i32 0, i32 1
  %22 = load ptr, ptr %21, align 8
  %23 = call i64 @php_random_range64(ptr %20, ptr %22, i64 noundef %18)
  %24 = load i64, ptr %7, align 8
  %25 = add i64 %23, %24
  store i64 %25, ptr %5, align 8
  br label %37

26:                                               ; preds = %4
  %27 = load i64, ptr %9, align 8
  %28 = trunc i64 %27 to i32
  %29 = getelementptr inbounds { ptr, ptr }, ptr %6, i32 0, i32 0
  %30 = load ptr, ptr %29, align 8
  %31 = getelementptr inbounds { ptr, ptr }, ptr %6, i32 0, i32 1
  %32 = load ptr, ptr %31, align 8
  %33 = call i32 @php_random_range32(ptr %30, ptr %32, i32 noundef %28)
  %34 = zext i32 %33 to i64
  %35 = load i64, ptr %7, align 8
  %36 = add nsw i64 %34, %35
  store i64 %36, ptr %5, align 8
  br label %37

37:                                               ; preds = %26, %17
  %38 = load i64, ptr %5, align 8
  ret i64 %38
}