; Function Attrs: nounwind uwtable
define i64 @php_random_range(ptr nocapture readonly %0, ptr %1, i64 noundef %2, i64 noundef %3) local_unnamed_addr #0 {
  %5 = sub i64 %3, %2
  %6 = icmp ugt i64 %5, 4294967295
  br i1 %6, label %7, label %49

7:                                                ; preds = %4
  %8 = getelementptr inbounds i8, ptr %0, i64 8
  br label %9

9:                                                ; preds = %13, %7
  %.030.i = phi i64 [ 0, %7 ], [ %19, %13 ]
  %.029.i = phi i64 [ 0, %7 ], [ %17, %13 ]
  %10 = load ptr, ptr %8, align 8
  %11 = tail call { i64, i64 } %10(ptr noundef %1) #13
  %12 = load ptr, ptr getelementptr inbounds (%struct._zend_executor_globals, ptr @executor_globals, i64 0, i32 50), align 8
  %.not.i = icmp eq ptr %12, null
  br i1 %.not.i, label %13, label %php_random_range64.exit

13:                                               ; preds = %9
  %14 = extractvalue { i64, i64 } %11, 0
  %15 = shl nuw nsw i64 %.030.i, 3
  %16 = shl i64 %14, %15
  %17 = or i64 %16, %.029.i
  %18 = extractvalue { i64, i64 } %11, 1
  %19 = add i64 %18, %.030.i
  %20 = icmp ult i64 %19, 8
  br i1 %20, label %9, label %21

21:                                               ; preds = %13
  %22 = icmp eq i64 %5, -1
  br i1 %22, label %php_random_range64.exit, label %23

23:                                               ; preds = %21
  %24 = add nuw i64 %5, 1
  %25 = and i64 %24, %5
  %26 = icmp eq i64 %25, 0
  br i1 %26, label %27, label %29

27:                                               ; preds = %23
  %28 = and i64 %17, %5
  br label %php_random_range64.exit

29:                                               ; preds = %23
  %30 = urem i64 -1, %24
  %31 = sub nuw i64 -2, %30
  %32 = icmp ugt i64 %17, %31
  br i1 %32, label %.lr.ph.i, label %._crit_edge.i

.loopexit38.i:                                    ; preds = %40
  %33 = icmp ugt i64 %46, %31
  br i1 %33, label %.lr.ph.i, label %._crit_edge.i

.lr.ph.i:                                         ; preds = %29, %.loopexit38.i
  %.03246.i = phi i32 [ %34, %.loopexit38.i ], [ 0, %29 ]
  %34 = add nuw nsw i32 %.03246.i, 1
  %exitcond.i = icmp eq i32 %.03246.i, 50
  br i1 %exitcond.i, label %35, label %.preheader.i

35:                                               ; preds = %.lr.ph.i
  %36 = load ptr, ptr @random_ce_Random_BrokenRandomEngineError, align 8
  tail call void (ptr, ptr, ...) @zend_throw_error(ptr noundef %36, ptr noundef nonnull @.str, i32 noundef 50) #13
  br label %php_random_range64.exit

.preheader.i:                                     ; preds = %.lr.ph.i, %40
  %.131.i = phi i64 [ %42, %40 ], [ 0, %.lr.ph.i ]
  %.2.i = phi i64 [ %46, %40 ], [ 0, %.lr.ph.i ]
  %37 = load ptr, ptr %8, align 8
  %38 = tail call { i64, i64 } %37(ptr noundef %1) #13
  %39 = load ptr, ptr getelementptr inbounds (%struct._zend_executor_globals, ptr @executor_globals, i64 0, i32 50), align 8
  %.not37.i = icmp eq ptr %39, null
  br i1 %.not37.i, label %40, label %php_random_range64.exit

40:                                               ; preds = %.preheader.i
  %41 = extractvalue { i64, i64 } %38, 1
  %42 = add i64 %41, %.131.i
  %43 = extractvalue { i64, i64 } %38, 0
  %44 = shl nuw nsw i64 %.131.i, 3
  %45 = shl i64 %43, %44
  %46 = or i64 %45, %.2.i
  %47 = icmp ult i64 %42, 8
  br i1 %47, label %.preheader.i, label %.loopexit38.i

._crit_edge.i:                                    ; preds = %.loopexit38.i, %29
  %.1.lcssa.i = phi i64 [ %17, %29 ], [ %46, %.loopexit38.i ]
  %48 = urem i64 %.1.lcssa.i, %24
  br label %php_random_range64.exit

49:                                               ; preds = %4
  %50 = trunc i64 %5 to i32
  %51 = getelementptr inbounds i8, ptr %0, i64 8
  br label %52

52:                                               ; preds = %56, %49
  %.030.i11 = phi i64 [ 0, %49 ], [ %63, %56 ]
  %.029.i12 = phi i32 [ 0, %49 ], [ %61, %56 ]
  %53 = load ptr, ptr %51, align 8
  %54 = tail call { i64, i64 } %53(ptr noundef %1) #13
  %55 = load ptr, ptr getelementptr inbounds (%struct._zend_executor_globals, ptr @executor_globals, i64 0, i32 50), align 8
  %.not.i13 = icmp eq ptr %55, null
  br i1 %.not.i13, label %56, label %php_random_range32.exit

56:                                               ; preds = %52
  %57 = extractvalue { i64, i64 } %54, 0
  %58 = trunc i64 %57 to i32
  %.030.tr.i = trunc i64 %.030.i11 to i32
  %59 = shl nuw nsw i32 %.030.tr.i, 3
  %60 = shl i32 %58, %59
  %61 = or i32 %60, %.029.i12
  %62 = extractvalue { i64, i64 } %54, 1
  %63 = add i64 %62, %.030.i11
  %64 = icmp ult i64 %63, 4
  br i1 %64, label %52, label %65

65:                                               ; preds = %56
  %66 = icmp eq i32 %50, -1
  br i1 %66, label %php_random_range32.exit, label %67

67:                                               ; preds = %65
  %68 = add nuw i32 %50, 1
  %69 = and i32 %68, %50
  %70 = icmp eq i32 %69, 0
  br i1 %70, label %71, label %73

71:                                               ; preds = %67
  %72 = and i32 %61, %50
  br label %php_random_range32.exit

73:                                               ; preds = %67
  %74 = urem i32 -1, %68
  %75 = sub nuw i32 -2, %74
  %76 = icmp ugt i32 %61, %75
  br i1 %76, label %.lr.ph.i17, label %._crit_edge.i15

.loopexit38.i24:                                  ; preds = %84
  %77 = icmp ugt i32 %91, %75
  br i1 %77, label %.lr.ph.i17, label %._crit_edge.i15

.lr.ph.i17:                                       ; preds = %73, %.loopexit38.i24
  %.03246.i18 = phi i32 [ %78, %.loopexit38.i24 ], [ 0, %73 ]
  %78 = add nuw nsw i32 %.03246.i18, 1
  %exitcond.i19 = icmp eq i32 %.03246.i18, 50
  br i1 %exitcond.i19, label %79, label %.preheader.i20

79:                                               ; preds = %.lr.ph.i17
  %80 = load ptr, ptr @random_ce_Random_BrokenRandomEngineError, align 8
  tail call void (ptr, ptr, ...) @zend_throw_error(ptr noundef %80, ptr noundef nonnull @.str, i32 noundef 50) #13
  br label %php_random_range32.exit

.preheader.i20:                                   ; preds = %.lr.ph.i17, %84
  %.131.i21 = phi i64 [ %86, %84 ], [ 0, %.lr.ph.i17 ]
  %.2.i22 = phi i32 [ %91, %84 ], [ 0, %.lr.ph.i17 ]
  %81 = load ptr, ptr %51, align 8
  %82 = tail call { i64, i64 } %81(ptr noundef %1) #13
  %83 = load ptr, ptr getelementptr inbounds (%struct._zend_executor_globals, ptr @executor_globals, i64 0, i32 50), align 8
  %.not37.i23 = icmp eq ptr %83, null
  br i1 %.not37.i23, label %84, label %php_random_range32.exit

84:                                               ; preds = %.preheader.i20
  %85 = extractvalue { i64, i64 } %82, 1
  %86 = add i64 %85, %.131.i21
  %87 = extractvalue { i64, i64 } %82, 0
  %88 = trunc i64 %87 to i32
  %.131.tr.i = trunc i64 %.131.i21 to i32
  %89 = shl nuw nsw i32 %.131.tr.i, 3
  %90 = shl i32 %88, %89
  %91 = or i32 %90, %.2.i22
  %92 = icmp ult i64 %86, 4
  br i1 %92, label %.preheader.i20, label %.loopexit38.i24

._crit_edge.i15:                                  ; preds = %.loopexit38.i24, %73
  %.1.lcssa.i16 = phi i32 [ %61, %73 ], [ %91, %.loopexit38.i24 ]
  %93 = urem i32 %.1.lcssa.i16, %68
  br label %php_random_range32.exit

php_random_range32.exit:                          ; preds = %52, %.preheader.i20, %65, %71, %79, %._crit_edge.i15
  %.0.i14 = phi i32 [ %72, %71 ], [ 0, %79 ], [ %93, %._crit_edge.i15 ], [ %61, %65 ], [ 0, %.preheader.i20 ], [ 0, %52 ]
  %94 = zext i32 %.0.i14 to i64
  br label %php_random_range64.exit

php_random_range64.exit:                          ; preds = %9, %.preheader.i, %._crit_edge.i, %35, %27, %21, %php_random_range32.exit
  %.pn = phi i64 [ %94, %php_random_range32.exit ], [ %28, %27 ], [ 0, %35 ], [ %48, %._crit_edge.i ], [ %17, %21 ], [ 0, %.preheader.i ], [ 0, %9 ]
  %.0 = add i64 %.pn, %2
  ret i64 %.0
}